target datalayout = "e-m:e-p270:32:32-p271:32:32-p272:64:64-i64:64-i128:128-f80:128-n8:16:32:64-S128"
target triple = "x86_64-pc-linux-gnu"

%struct._sapi_module_struct = type { ptr, ptr, ptr, ptr, ptr, ptr, ptr, ptr, ptr, ptr, ptr, ptr, ptr, ptr, ptr, ptr, ptr, ptr, ptr, ptr, ptr, ptr, ptr, ptr, i32, i32, ptr, ptr, ptr, ptr, ptr, ptr, i32, ptr, ptr, ptr }
%struct._sapi_globals_struct = type { ptr, %struct.sapi_request_info, %struct.sapi_headers_struct, i64, i8, i8, %struct.stat, ptr, ptr, ptr, i64, i32, i8, double, %struct._zend_array, %struct._zval_struct, %struct._zend_fcall_info_cache, %struct.sapi_request_parse_body_context }
%struct.sapi_request_info = type { ptr, ptr, ptr, i64, ptr, ptr, ptr, ptr, i8, i8, i8, ptr, ptr, ptr, ptr, ptr, ptr, ptr, i32, i32, ptr, i32 }
%struct.sapi_headers_struct = type { %struct._zend_llist, i32, i8, ptr, ptr }
%struct._zend_llist = type { ptr, ptr, i64, i64, ptr, i8, ptr }
%struct.stat = type { i64, i64, i64, i32, i32, i32, i32, i64, i64, i64, i64, %struct.timespec, %struct.timespec, %struct.timespec, [3 x i64] }
%struct.timespec = type { i64, i64 }
%struct._zend_array = type { %struct._zend_refcounted_h, %union.anon.0, i32, %union.anon.1, i32, i32, i32, i32, i64, ptr }
%struct._zend_refcounted_h = type { i32, %union.anon }
%union.anon = type { i32 }
%union.anon.0 = type { i32 }
%union.anon.1 = type { ptr }
%struct._zval_struct = type { %union._zend_value, %union.anon.3, %union.anon.6 }
%union._zend_value = type { i64 }
%union.anon.3 = type { i32 }
%union.anon.6 = type { i32 }
%struct._zend_fcall_info_cache = type { ptr, ptr, ptr, ptr, ptr }
%struct.sapi_request_parse_body_context = type { i8, [5 x %struct.anon.7] }
%struct.anon.7 = type { i8, i64 }
%struct._php_core_globals = type { i64, i8, i8, i8, i8, i8, i8, i8, i8, ptr, ptr, i64, i64, i64, ptr, ptr, ptr, ptr, ptr, i8, ptr, ptr, ptr, ptr, i64, ptr, ptr, ptr, ptr, ptr, ptr, ptr, %struct._arg_separators, ptr, %struct._zend_array, i16, i8, i8, %struct._zend_llist, [6 x %struct._zval_struct], i8, i8, i8, i8, i8, ptr, ptr, i64, [8 x i8], i8, i8, i8, i8, i8, i8, i32, i32, ptr, ptr, ptr, ptr, i64, i64, ptr, i64, ptr, ptr, i8, i8, i8, i8, i8, i8, i64, ptr, i64, i64 }
%struct._arg_separators = type { ptr, ptr }

@sapi_module = dso_local global %struct._sapi_module_struct zeroinitializer, align 8
@sapi_globals = dso_local global %struct._sapi_globals_struct zeroinitializer, align 8
@.str.2 = private unnamed_addr constant [64 x i8] c"POST Content-Length of %ld bytes exceeds the limit of %ld bytes\00", align 1
@core_globals = external global %struct._php_core_globals, align 8
@.str.3 = private unnamed_addr constant [48 x i8] c"POST data can't be buffered; all data discarded\00", align 1
@.str.4 = private unnamed_addr constant [72 x i8] c"Actual POST length does not match Content-Length, and exceeds %ld bytes\00", align 1

; Function Attrs: nounwind uwtable
define dso_local i64 @sapi_read_post_block(ptr noundef %0, i64 noundef %1) #0 {
  %3 = alloca i64, align 8
  %4 = alloca ptr, align 8
  %5 = alloca i64, align 8
  %6 = alloca i64, align 8
  %7 = alloca i32, align 4
  store ptr %0, ptr %4, align 8, !tbaa !15
  store i64 %1, ptr %5, align 8, !tbaa !95
  call void @llvm.lifetime.start.p0(i64 8, ptr %6) #15
  %8 = load ptr, ptr getelementptr inbounds nuw (%struct._sapi_module_struct, ptr @sapi_module, i32 0, i32 14), align 8, !tbaa !96
  %9 = icmp ne ptr %8, null
  br i1 %9, label %11, label %10

10:                                               ; preds = %2
  store i64 0, ptr %3, align 8
  store i32 1, ptr %7, align 4
  br label %29

11:                                               ; preds = %2
  %12 = load ptr, ptr getelementptr inbounds nuw (%struct._sapi_module_struct, ptr @sapi_module, i32 0, i32 14), align 8, !tbaa !96
  %13 = load ptr, ptr %4, align 8, !tbaa !15
  %14 = load i64, ptr %5, align 8, !tbaa !95
  %15 = call i64 %12(ptr noundef %13, i64 noundef %14)
  store i64 %15, ptr %6, align 8, !tbaa !95
  %16 = load i64, ptr %6, align 8, !tbaa !95
  %17 = icmp ugt i64 %16, 0
  br i1 %17, label %18, label %22

18:                                               ; preds = %11
  %19 = load i64, ptr %6, align 8, !tbaa !95
  %20 = load i64, ptr getelementptr inbounds nuw (%struct._sapi_globals_struct, ptr @sapi_globals, i32 0, i32 3), align 8, !tbaa !97
  %21 = add i64 %20, %19
  store i64 %21, ptr getelementptr inbounds nuw (%struct._sapi_globals_struct, ptr @sapi_globals, i32 0, i32 3), align 8, !tbaa !97
  br label %22

22:                                               ; preds = %18, %11
  %23 = load i64, ptr %6, align 8, !tbaa !95
  %24 = load i64, ptr %5, align 8, !tbaa !95
  %25 = icmp ult i64 %23, %24
  br i1 %25, label %26, label %27

26:                                               ; preds = %22
  store i8 1, ptr getelementptr inbounds nuw (%struct._sapi_globals_struct, ptr @sapi_globals, i32 0, i32 4), align 8, !tbaa !98
  br label %27

27:                                               ; preds = %26, %22
  %28 = load i64, ptr %6, align 8, !tbaa !95
  store i64 %28, ptr %3, align 8
  store i32 1, ptr %7, align 4
  br label %29

29:                                               ; preds = %27, %10
  call void @llvm.lifetime.end.p0(i64 8, ptr %6) #15
  %30 = load i64, ptr %3, align 8
  ret i64 %30
}

; Function Attrs: nounwind uwtable
define dso_local void @sapi_read_standard_form_data() #0 {
  %1 = alloca i64, align 8
  %2 = alloca i32, align 4
  %3 = alloca i64, align 8
  %4 = alloca [16384 x i8], align 16
  call void @llvm.lifetime.start.p0(i64 8, ptr %1) #15
  %5 = load i8, ptr getelementptr inbounds ([5 x %struct.anon.7], ptr getelementptr inbounds nuw (%struct.sapi_request_parse_body_context, ptr getelementptr inbounds nuw (%struct._sapi_globals_struct, ptr @sapi_globals, i32 0, i32 17), i32 0, i32 1), i64 0, i64 3), align 8, !tbaa !99, !range !101, !noundef !102
  %6 = trunc i8 %5 to i1
  br i1 %6, label %7, label %9

7:                                                ; preds = %0
  %8 = load i64, ptr getelementptr inbounds nuw (%struct.anon.7, ptr getelementptr inbounds ([5 x %struct.anon.7], ptr getelementptr inbounds nuw (%struct.sapi_request_parse_body_context, ptr getelementptr inbounds nuw (%struct._sapi_globals_struct, ptr @sapi_globals, i32 0, i32 17), i32 0, i32 1), i64 0, i64 3), i32 0, i32 1), align 8, !tbaa !103
  br label %11

9:                                                ; preds = %0
  %10 = load i64, ptr getelementptr inbounds nuw (%struct._sapi_globals_struct, ptr @sapi_globals, i32 0, i32 10), align 8, !tbaa !104
  br label %11

11:                                               ; preds = %9, %7
  %12 = phi i64 [ %8, %7 ], [ %10, %9 ]
  store i64 %12, ptr %1, align 8, !tbaa !95
  %13 = load i64, ptr %1, align 8, !tbaa !95
  %14 = icmp sgt i64 %13, 0
  br i1 %14, label %15, label %22

15:                                               ; preds = %11
  %16 = load i64, ptr getelementptr inbounds nuw (%struct.sapi_request_info, ptr getelementptr inbounds nuw (%struct._sapi_globals_struct, ptr @sapi_globals, i32 0, i32 1), i32 0, i32 3), align 8, !tbaa !105
  %17 = load i64, ptr %1, align 8, !tbaa !95
  %18 = icmp sgt i64 %16, %17
  br i1 %18, label %19, label %22

19:                                               ; preds = %15
  %20 = load i64, ptr getelementptr inbounds nuw (%struct.sapi_request_info, ptr getelementptr inbounds nuw (%struct._sapi_globals_struct, ptr @sapi_globals, i32 0, i32 1), i32 0, i32 3), align 8, !tbaa !105
  %21 = load i64, ptr %1, align 8, !tbaa !95
  call void (ptr, i32, ptr, ...) @php_error_docref(ptr noundef null, i32 noundef 2, ptr noundef @.str.2, i64 noundef %20, i64 noundef %21)
  store i32 1, ptr %2, align 4
  br label %65

22:                                               ; preds = %15, %11
  %23 = load ptr, ptr getelementptr inbounds nuw (%struct._php_core_globals, ptr @core_globals, i32 0, i32 23), align 8, !tbaa !106
  %24 = call ptr @_php_stream_temp_create_ex(i32 noundef 0, i64 noundef 16384, ptr noundef %23)
  store ptr %24, ptr getelementptr inbounds nuw (%struct.sapi_request_info, ptr getelementptr inbounds nuw (%struct._sapi_globals_struct, ptr @sapi_globals, i32 0, i32 1), i32 0, i32 6), align 8, !tbaa !110
  %25 = load ptr, ptr getelementptr inbounds nuw (%struct._sapi_module_struct, ptr @sapi_module, i32 0, i32 14), align 8, !tbaa !96
  %26 = icmp ne ptr %25, null
  br i1 %26, label %27, label %64

27:                                               ; preds = %22
  call void @llvm.lifetime.start.p0(i64 8, ptr %3) #15
  br label %28

28:                                               ; preds = %60, %27
  call void @llvm.lifetime.start.p0(i64 16384, ptr %4) #15
  %29 = getelementptr inbounds [16384 x i8], ptr %4, i64 0, i64 0
  %30 = call i64 @sapi_read_post_block(ptr noundef %29, i64 noundef 16384)
  store i64 %30, ptr %3, align 8, !tbaa !95
  %31 = load i64, ptr %3, align 8, !tbaa !95
  %32 = icmp ugt i64 %31, 0
  br i1 %32, label %33, label %44

33:                                               ; preds = %28
  %34 = load ptr, ptr getelementptr inbounds nuw (%struct.sapi_request_info, ptr getelementptr inbounds nuw (%struct._sapi_globals_struct, ptr @sapi_globals, i32 0, i32 1), i32 0, i32 6), align 8, !tbaa !110
  %35 = getelementptr inbounds [16384 x i8], ptr %4, i64 0, i64 0
  %36 = load i64, ptr %3, align 8, !tbaa !95
  %37 = call i64 @_php_stream_write(ptr noundef %34, ptr noundef %35, i64 noundef %36)
  %38 = load i64, ptr %3, align 8, !tbaa !95
  %39 = icmp ne i64 %37, %38
  br i1 %39, label %40, label %43

40:                                               ; preds = %33
  %41 = load ptr, ptr getelementptr inbounds nuw (%struct.sapi_request_info, ptr getelementptr inbounds nuw (%struct._sapi_globals_struct, ptr @sapi_globals, i32 0, i32 1), i32 0, i32 6), align 8, !tbaa !110
  %42 = call i32 @_php_stream_truncate_set_size(ptr noundef %41, i64 noundef 0)
  call void (ptr, i32, ptr, ...) @php_error_docref(ptr noundef null, i32 noundef 2, ptr noundef @.str.3)
  store i32 2, ptr %2, align 4
  br label %58

43:                                               ; preds = %33
  br label %44

44:                                               ; preds = %43, %28
  %45 = load i64, ptr %1, align 8, !tbaa !95
  %46 = icmp sgt i64 %45, 0
  br i1 %46, label %47, label %53

47:                                               ; preds = %44
  %48 = load i64, ptr getelementptr inbounds nuw (%struct._sapi_globals_struct, ptr @sapi_globals, i32 0, i32 3), align 8, !tbaa !97
  %49 = load i64, ptr %1, align 8, !tbaa !95
  %50 = icmp sgt i64 %48, %49
  br i1 %50, label %51, label %53

51:                                               ; preds = %47
  %52 = load i64, ptr %1, align 8, !tbaa !95
  call void (ptr, i32, ptr, ...) @php_error_docref(ptr noundef null, i32 noundef 2, ptr noundef @.str.4, i64 noundef %52)
  store i32 2, ptr %2, align 4
  br label %58

53:                                               ; preds = %47, %44
  %54 = load i64, ptr %3, align 8, !tbaa !95
  %55 = icmp ult i64 %54, 16384
  br i1 %55, label %56, label %57

56:                                               ; preds = %53
  store i32 2, ptr %2, align 4
  br label %58

57:                                               ; preds = %53
  store i32 0, ptr %2, align 4
  br label %58

58:                                               ; preds = %57, %56, %51, %40
  call void @llvm.lifetime.end.p0(i64 16384, ptr %4) #15
  %59 = load i32, ptr %2, align 4
  switch i32 %59, label %68 [
    i32 0, label %60
    i32 2, label %61
  ]

60:                                               ; preds = %58
  br label %28

61:                                               ; preds = %58
  %62 = load ptr, ptr getelementptr inbounds nuw (%struct.sapi_request_info, ptr getelementptr inbounds nuw (%struct._sapi_globals_struct, ptr @sapi_globals, i32 0, i32 1), i32 0, i32 6), align 8, !tbaa !110
  %63 = call i32 @_php_stream_seek(ptr noundef %62, i64 noundef 0, i32 noundef 0)
  call void @llvm.lifetime.end.p0(i64 8, ptr %3) #15
  br label %64

64:                                               ; preds = %61, %22
  store i32 0, ptr %2, align 4
  br label %65

65:                                               ; preds = %64, %19
  call void @llvm.lifetime.end.p0(i64 8, ptr %1) #15
  %66 = load i32, ptr %2, align 4
  switch i32 %66, label %68 [
    i32 0, label %67
    i32 1, label %67
  ]

67:                                               ; preds = %65, %65
  ret void

68:                                               ; preds = %65, %58
  unreachable
}