; Function Attrs: nounwind uwtable
define dso_local void @sapi_read_standard_form_data() local_unnamed_addr #0 {
  %1 = alloca [16384 x i8], align 16
  %2 = load i8, ptr getelementptr inbounds nuw (i8, ptr @sapi_globals, i64 616), align 8, !tbaa !88, !range !90, !noundef !80
  %3 = trunc nuw i8 %2 to i1
  %4 = load i64, ptr getelementptr inbounds nuw (i8, ptr @sapi_globals, i64 624), align 8
  %5 = load i64, ptr getelementptr inbounds nuw (i8, ptr @sapi_globals, i64 424), align 8
  %6 = select i1 %3, i64 %4, i64 %5
  %7 = icmp sgt i64 %6, 0
  br i1 %7, label %8, label %12

8:                                                ; preds = %0
  %9 = load i64, ptr getelementptr inbounds nuw (i8, ptr @sapi_globals, i64 32), align 8, !tbaa !91
  %10 = icmp sgt i64 %9, %6
  br i1 %10, label %11, label %12

11:                                               ; preds = %8
  tail call void (ptr, i32, ptr, ...) @php_error_docref(ptr noundef null, i32 noundef 2, ptr noundef nonnull @.str.2, i64 noundef %9, i64 noundef %6) #19
  br label %45

12:                                               ; preds = %8, %0
  %13 = load ptr, ptr getelementptr inbounds nuw (i8, ptr @core_globals, i64 128), align 8, !tbaa !92
  %14 = tail call ptr @_php_stream_temp_create_ex(i32 noundef 0, i64 noundef 16384, ptr noundef %13) #19
  store ptr %14, ptr getelementptr inbounds nuw (i8, ptr @sapi_globals, i64 56), align 8, !tbaa !96
  %15 = load ptr, ptr getelementptr inbounds nuw (i8, ptr @sapi_module, i64 112), align 8, !tbaa !85
  %.not = icmp eq ptr %15, null
  br i1 %.not, label %45, label %.preheader

.preheader:                                       ; preds = %12
  call void @llvm.lifetime.start.p0(i64 16384, ptr nonnull %1) #19
  br i1 %7, label %.preheader.split, label %.preheader.split.us

.preheader.split.us:                              ; preds = %.preheader, %thread-pre-split.us
  %16 = phi ptr [ %.pr.us, %thread-pre-split.us ], [ %15, %.preheader ]
  %17 = call i64 %16(ptr noundef nonnull %1, i64 noundef 16384) #19
  %.not9.i.us = icmp eq i64 %17, 0
  br i1 %.not9.i.us, label %sapi_read_post_block.exit.thread.us.thread, label %18

18:                                               ; preds = %.preheader.split.us
  %19 = load i64, ptr getelementptr inbounds nuw (i8, ptr @sapi_globals, i64 240), align 8, !tbaa !86
  %20 = add i64 %19, %17
  store i64 %20, ptr getelementptr inbounds nuw (i8, ptr @sapi_globals, i64 240), align 8, !tbaa !86
  %21 = icmp ult i64 %17, 16384
  br i1 %21, label %sapi_read_post_block.exit.us, label %sapi_read_post_block.exit.thread20.us

sapi_read_post_block.exit.us:                     ; preds = %18
  store i8 1, ptr getelementptr inbounds nuw (i8, ptr @sapi_globals, i64 248), align 8, !tbaa !87
  br label %sapi_read_post_block.exit.thread20.us

sapi_read_post_block.exit.thread20.us:            ; preds = %sapi_read_post_block.exit.us, %18
  %22 = load ptr, ptr getelementptr inbounds nuw (i8, ptr @sapi_globals, i64 56), align 8, !tbaa !96
  %23 = call i64 @_php_stream_write(ptr noundef %22, ptr noundef nonnull %1, i64 noundef %17) #19
  %.not15.us = icmp eq i64 %23, %17
  br i1 %.not15.us, label %sapi_read_post_block.exit.thread.us, label %.split.us

sapi_read_post_block.exit.thread.us.thread:       ; preds = %.preheader.split.us
  store i8 1, ptr getelementptr inbounds nuw (i8, ptr @sapi_globals, i64 248), align 8, !tbaa !87
  br label %select.unfold

sapi_read_post_block.exit.thread.us:              ; preds = %sapi_read_post_block.exit.thread20.us
  %24 = icmp ult i64 %17, 16384
  br i1 %24, label %select.unfold, label %thread-pre-split.us

thread-pre-split.us:                              ; preds = %sapi_read_post_block.exit.thread.us
  call void @llvm.lifetime.end.p0(i64 16384, ptr nonnull %1) #19
  %.pr.us = load ptr, ptr getelementptr inbounds nuw (i8, ptr @sapi_module, i64 112), align 8, !tbaa !85
  call void @llvm.lifetime.start.p0(i64 16384, ptr nonnull %1) #19
  %.not.i.us = icmp eq ptr %.pr.us, null
  br i1 %.not.i.us, label %sapi_read_post_block.exit.thread.thread.loopexit36, label %.preheader.split.us

thread-pre-split:                                 ; preds = %41
  call void @llvm.lifetime.end.p0(i64 16384, ptr nonnull %1) #19
  %.pr = load ptr, ptr getelementptr inbounds nuw (i8, ptr @sapi_module, i64 112), align 8, !tbaa !85
  call void @llvm.lifetime.start.p0(i64 16384, ptr nonnull %1) #19
  %.not.i = icmp eq ptr %.pr, null
  br i1 %.not.i, label %sapi_read_post_block.exit.thread.thread, label %.preheader.split

.preheader.split:                                 ; preds = %.preheader, %thread-pre-split
  %25 = phi ptr [ %.pr, %thread-pre-split ], [ %15, %.preheader ]
  %26 = call i64 %25(ptr noundef nonnull %1, i64 noundef 16384) #19
  %.not9.i = icmp eq i64 %26, 0
  br i1 %.not9.i, label %sapi_read_post_block.exit.thread.thread38, label %27

27:                                               ; preds = %.preheader.split
  %28 = load i64, ptr getelementptr inbounds nuw (i8, ptr @sapi_globals, i64 240), align 8, !tbaa !86
  %29 = add i64 %28, %26
  store i64 %29, ptr getelementptr inbounds nuw (i8, ptr @sapi_globals, i64 240), align 8, !tbaa !86
  %30 = icmp ult i64 %26, 16384
  br i1 %30, label %sapi_read_post_block.exit, label %sapi_read_post_block.exit.thread20

sapi_read_post_block.exit:                        ; preds = %27
  store i8 1, ptr getelementptr inbounds nuw (i8, ptr @sapi_globals, i64 248), align 8, !tbaa !87
  br label %sapi_read_post_block.exit.thread20

sapi_read_post_block.exit.thread20:               ; preds = %27, %sapi_read_post_block.exit
  %31 = load ptr, ptr getelementptr inbounds nuw (i8, ptr @sapi_globals, i64 56), align 8, !tbaa !96
  %32 = call i64 @_php_stream_write(ptr noundef %31, ptr noundef nonnull %1, i64 noundef %26) #19
  %.not15 = icmp eq i64 %32, %26
  br i1 %.not15, label %sapi_read_post_block.exit.thread, label %.split.us

.split.us:                                        ; preds = %sapi_read_post_block.exit.thread20.us, %sapi_read_post_block.exit.thread20
  %33 = load ptr, ptr getelementptr inbounds nuw (i8, ptr @sapi_globals, i64 56), align 8, !tbaa !96
  %34 = call i32 @_php_stream_truncate_set_size(ptr noundef %33, i64 noundef 0) #19
  call void (ptr, i32, ptr, ...) @php_error_docref(ptr noundef null, i32 noundef 2, ptr noundef nonnull @.str.3) #19
  br label %select.unfold

sapi_read_post_block.exit.thread:                 ; preds = %sapi_read_post_block.exit.thread20
  %35 = load i64, ptr getelementptr inbounds nuw (i8, ptr @sapi_globals, i64 240), align 8
  %36 = icmp sgt i64 %35, %6
  br i1 %36, label %.loopexit, label %41

sapi_read_post_block.exit.thread.thread38:        ; preds = %.preheader.split
  store i8 1, ptr getelementptr inbounds nuw (i8, ptr @sapi_globals, i64 248), align 8, !tbaa !87
  %37 = load i64, ptr getelementptr inbounds nuw (i8, ptr @sapi_globals, i64 240), align 8
  %38 = icmp sgt i64 %37, %6
  br i1 %38, label %.loopexit, label %select.unfold

sapi_read_post_block.exit.thread.thread.loopexit36: ; preds = %thread-pre-split.us
  %.pre = load i64, ptr getelementptr inbounds nuw (i8, ptr @sapi_globals, i64 240), align 8
  br label %sapi_read_post_block.exit.thread.thread

sapi_read_post_block.exit.thread.thread:          ; preds = %thread-pre-split, %sapi_read_post_block.exit.thread.thread.loopexit36
  %39 = phi i64 [ %.pre, %sapi_read_post_block.exit.thread.thread.loopexit36 ], [ %35, %thread-pre-split ]
  %40 = icmp sgt i64 %39, %6
  %or.cond30 = select i1 %7, i1 %40, i1 false
  br i1 %or.cond30, label %.loopexit, label %select.unfold

.loopexit:                                        ; preds = %sapi_read_post_block.exit.thread, %sapi_read_post_block.exit.thread.thread38, %sapi_read_post_block.exit.thread.thread
  call void (ptr, i32, ptr, ...) @php_error_docref(ptr noundef null, i32 noundef 2, ptr noundef nonnull @.str.4, i64 noundef %6) #19
  br label %select.unfold

41:                                               ; preds = %sapi_read_post_block.exit.thread
  %42 = icmp ult i64 %26, 16384
  br i1 %42, label %select.unfold, label %thread-pre-split

select.unfold:                                    ; preds = %sapi_read_post_block.exit.thread.us, %41, %sapi_read_post_block.exit.thread.thread38, %sapi_read_post_block.exit.thread.us.thread, %sapi_read_post_block.exit.thread.thread, %.split.us, %.loopexit
  call void @llvm.lifetime.end.p0(i64 16384, ptr nonnull %1) #19
  %43 = load ptr, ptr getelementptr inbounds nuw (i8, ptr @sapi_globals, i64 56), align 8, !tbaa !96
  %44 = call i32 @_php_stream_seek(ptr noundef %43, i64 noundef 0, i32 noundef 0) #19
  br label %45

45:                                               ; preds = %12, %select.unfold, %11
  ret void
}